target datalayout = "e-m:e-p270:32:32-p271:32:32-p272:64:64-i64:64-i128:128-f80:128-n8:16:32:64-S128"
target triple = "x86_64-pc-linux-gnu"

%struct.nameData = type { [64 x i8] }
%struct.RelationData = type { %struct.RelFileLocator, ptr, i32, i32, i8, i8, i8, i8, i8, i32, i32, i32, i32, ptr, ptr, i32, %struct.LockInfoData, ptr, ptr, ptr, ptr, ptr, i8, ptr, ptr, ptr, ptr, ptr, ptr, i32, ptr, i8, ptr, ptr, i32, i8, i32, ptr, i8, ptr, ptr, ptr, ptr, ptr, ptr, ptr, i32, ptr, ptr, ptr, ptr, ptr, ptr, ptr, ptr, ptr, ptr, ptr, ptr, ptr, ptr, ptr, ptr, ptr, ptr, ptr, i32, i8, ptr }
%struct.RelFileLocator = type { i32, i32, i32 }
%struct.LockInfoData = type { %struct.LockRelId }
%struct.LockRelId = type { i32, i32 }
%struct.ScanKeyData = type { i32, i16, i16, i32, i32, %struct.FmgrInfo, i64 }
%struct.FmgrInfo = type { ptr, i32, i16, i8, i8, i8, ptr, ptr, ptr }
%struct.HeapTupleData = type { i32, %struct.ItemPointerData, i32, ptr }
%struct.ItemPointerData = type { %struct.BlockIdData, i16 }
%struct.BlockIdData = type { i16, i16 }
%struct.HeapTupleHeaderData = type { %union.anon, %struct.ItemPointerData, i16, i16, i8, [0 x i8] }
%union.anon = type { %struct.HeapTupleFields }
%struct.HeapTupleFields = type { i32, i32, %union.anon.0 }
%union.anon.0 = type { i32 }
%struct.FormData_pg_constraint = type { i32, %struct.nameData, i32, i8, i8, i8, i8, i8, i32, i32, i32, i32, i32, i8, i8, i8, i8, i16, i8, i8 }

; Function Attrs: inlinehint nounwind uwtable
define internal ptr @GETSTRUCT(ptr noundef %0) #6 {
  %2 = alloca ptr, align 8
  store ptr %0, ptr %2, align 8
  %3 = load ptr, ptr %2, align 8
  %4 = getelementptr inbounds nuw %struct.HeapTupleData, ptr %3, i32 0, i32 3
  %5 = load ptr, ptr %4, align 8
  %6 = load ptr, ptr %2, align 8
  %7 = getelementptr inbounds nuw %struct.HeapTupleData, ptr %6, i32 0, i32 3
  %8 = load ptr, ptr %7, align 8
  %9 = getelementptr inbounds nuw %struct.HeapTupleHeaderData, ptr %8, i32 0, i32 4
  %10 = load i8, ptr %9, align 2
  %11 = zext i8 %10 to i32
  %12 = sext i32 %11 to i64
  %13 = getelementptr inbounds i8, ptr %5, i64 %12
  ret ptr %13
}

; Function Attrs: inlinehint nounwind uwtable
define internal i64 @CharGetDatum(i8 noundef signext %0) #6 {
  %2 = alloca i8, align 1
  store i8 %0, ptr %2, align 1
  %3 = load i8, ptr %2, align 1
  %4 = sext i8 %3 to i64
  ret i64 %4
}

; Function Attrs: inlinehint nounwind uwtable
define internal i64 @ObjectIdGetDatum(i32 noundef %0) #6 {
  %2 = alloca i32, align 4
  store i32 %0, ptr %2, align 4
  %3 = load i32, ptr %2, align 4
  %4 = zext i32 %3 to i64
  ret i64 %4
}

; Function Attrs: nounwind uwtable
define internal ptr @GetParentedForeignKeyRefs(ptr noundef %0) #0 {
  %2 = alloca ptr, align 8
  %3 = alloca ptr, align 8
  %4 = alloca ptr, align 8
  %5 = alloca ptr, align 8
  %6 = alloca ptr, align 8
  %7 = alloca [2 x %struct.ScanKeyData], align 16
  %8 = alloca ptr, align 8
  %9 = alloca i32, align 4
  %10 = alloca ptr, align 8
  store ptr %0, ptr %3, align 8
  call void @llvm.lifetime.start.p0(i64 8, ptr %4) #12
  call void @llvm.lifetime.start.p0(i64 8, ptr %5) #12
  call void @llvm.lifetime.start.p0(i64 8, ptr %6) #12
  call void @llvm.lifetime.start.p0(i64 144, ptr %7) #12
  call void @llvm.lifetime.start.p0(i64 8, ptr %8) #12
  store ptr null, ptr %8, align 8
  %11 = load ptr, ptr %3, align 8
  %12 = call ptr @RelationGetIndexList(ptr noundef %11)
  %13 = icmp eq ptr %12, null
  br i1 %13, label %18, label %14

14:                                               ; preds = %1
  %15 = load ptr, ptr %3, align 8
  %16 = call ptr @RelationGetIndexAttrBitmap(ptr noundef %15, i32 noundef 0)
  %17 = icmp eq ptr %16, null
  br i1 %17, label %18, label %19

18:                                               ; preds = %14, %1
  store ptr null, ptr %2, align 8
  store i32 1, ptr %9, align 4
  br label %56

19:                                               ; preds = %14
  %20 = call ptr @table_open(i32 noundef 2606, i32 noundef 1)
  store ptr %20, ptr %4, align 8
  %21 = getelementptr inbounds [2 x %struct.ScanKeyData], ptr %7, i64 0, i64 0
  %22 = load ptr, ptr %3, align 8
  %23 = getelementptr inbounds nuw %struct.RelationData, ptr %22, i32 0, i32 15
  %24 = load i32, ptr %23, align 8
  %25 = call i64 @ObjectIdGetDatum(i32 noundef %24)
  call void @ScanKeyInit(ptr noundef %21, i16 noundef signext 13, i16 noundef zeroext 3, i32 noundef 184, i64 noundef %25)
  %26 = getelementptr inbounds [2 x %struct.ScanKeyData], ptr %7, i64 0, i64 1
  %27 = call i64 @CharGetDatum(i8 noundef signext 102)
  call void @ScanKeyInit(ptr noundef %26, i16 noundef signext 4, i16 noundef zeroext 3, i32 noundef 61, i64 noundef %27)
  %28 = load ptr, ptr %4, align 8
  %29 = getelementptr inbounds [2 x %struct.ScanKeyData], ptr %7, i64 0, i64 0
  %30 = call ptr @systable_beginscan(ptr noundef %28, i32 noundef 0, i1 noundef zeroext true, ptr noundef null, i32 noundef 2, ptr noundef %29)
  store ptr %30, ptr %6, align 8
  br label %31

31:                                               ; preds = %51, %49, %19
  %32 = load ptr, ptr %6, align 8
  %33 = call ptr @systable_getnext(ptr noundef %32)
  store ptr %33, ptr %5, align 8
  %34 = icmp ne ptr %33, null
  br i1 %34, label %35, label %52

35:                                               ; preds = %31
  call void @llvm.lifetime.start.p0(i64 8, ptr %10) #12
  %36 = load ptr, ptr %5, align 8
  %37 = call ptr @GETSTRUCT(ptr noundef %36)
  store ptr %37, ptr %10, align 8
  %38 = load ptr, ptr %10, align 8
  %39 = getelementptr inbounds nuw %struct.FormData_pg_constraint, ptr %38, i32 0, i32 11
  %40 = load i32, ptr %39, align 4
  %41 = icmp ne i32 %40, 0
  br i1 %41, label %43, label %42

42:                                               ; preds = %35
  store i32 2, ptr %9, align 4
  br label %49, !llvm.loop !191

43:                                               ; preds = %35
  %44 = load ptr, ptr %8, align 8
  %45 = load ptr, ptr %10, align 8
  %46 = getelementptr inbounds nuw %struct.FormData_pg_constraint, ptr %45, i32 0, i32 0
  %47 = load i32, ptr %46, align 4
  %48 = call ptr @lappend_oid(ptr noundef %44, i32 noundef %47)
  store ptr %48, ptr %8, align 8
  store i32 0, ptr %9, align 4
  br label %49

49:                                               ; preds = %43, %42
  call void @llvm.lifetime.end.p0(i64 8, ptr %10) #12
  %50 = load i32, ptr %9, align 4
  switch i32 %50, label %58 [
    i32 0, label %51
    i32 2, label %31
  ]

51:                                               ; preds = %49
  br label %31, !llvm.loop !191

52:                                               ; preds = %31
  %53 = load ptr, ptr %6, align 8
  call void @systable_endscan(ptr noundef %53)
  %54 = load ptr, ptr %4, align 8
  call void @table_close(ptr noundef %54, i32 noundef 1)
  %55 = load ptr, ptr %8, align 8
  store ptr %55, ptr %2, align 8
  store i32 1, ptr %9, align 4
  br label %56

56:                                               ; preds = %52, %18
  call void @llvm.lifetime.end.p0(i64 8, ptr %8) #12
  call void @llvm.lifetime.end.p0(i64 144, ptr %7) #12
  call void @llvm.lifetime.end.p0(i64 8, ptr %6) #12
  call void @llvm.lifetime.end.p0(i64 8, ptr %5) #12
  call void @llvm.lifetime.end.p0(i64 8, ptr %4) #12
  %57 = load ptr, ptr %2, align 8
  ret ptr %57

58:                                               ; preds = %49
  unreachable
}