; Function Attrs: nounwind uwtable
define internal fastcc ptr @GetParentedForeignKeyRefs(ptr noundef %0) unnamed_addr #0 {
  %2 = alloca [2 x %struct.ScanKeyData], align 16
  call void @llvm.lifetime.start.p0(i64 144, ptr nonnull %2) #15
  %3 = tail call ptr @RelationGetIndexList(ptr noundef %0) #15
  %4 = icmp eq ptr %3, null
  br i1 %4, label %29, label %5

5:                                                ; preds = %1
  %6 = tail call ptr @RelationGetIndexAttrBitmap(ptr noundef %0, i32 noundef 0) #15
  %7 = icmp eq ptr %6, null
  br i1 %7, label %29, label %8

8:                                                ; preds = %5
  %9 = tail call ptr @table_open(i32 noundef 2606, i32 noundef 1) #15
  %10 = getelementptr inbounds nuw i8, ptr %0, i64 72
  %11 = load i32, ptr %10, align 8
  %12 = zext i32 %11 to i64
  call void @ScanKeyInit(ptr noundef nonnull %2, i16 noundef signext 13, i16 noundef zeroext 3, i32 noundef 184, i64 noundef %12) #15
  %13 = getelementptr inbounds nuw i8, ptr %2, i64 72
  call void @ScanKeyInit(ptr noundef nonnull %13, i16 noundef signext 4, i16 noundef zeroext 3, i32 noundef 61, i64 noundef 102) #15
  %14 = call ptr @systable_beginscan(ptr noundef %9, i32 noundef 0, i1 noundef zeroext true, ptr noundef null, i32 noundef 2, ptr noundef nonnull %2) #15
  %15 = call ptr @systable_getnext(ptr noundef %14) #15
  %.not16 = icmp eq ptr %15, null
  br i1 %.not16, label %._crit_edge, label %.lr.ph

.lr.ph:                                           ; preds = %8, %27
  %16 = phi ptr [ %28, %27 ], [ %15, %8 ]
  %.01317 = phi ptr [ %.1, %27 ], [ null, %8 ]
  %17 = getelementptr i8, ptr %16, i64 16
  %.val = load ptr, ptr %17, align 8
  %18 = getelementptr inbounds nuw i8, ptr %.val, i64 22
  %19 = load i8, ptr %18, align 2
  %20 = zext i8 %19 to i64
  %21 = getelementptr inbounds nuw i8, ptr %.val, i64 %20
  %22 = getelementptr inbounds nuw i8, ptr %21, i64 92
  %23 = load i32, ptr %22, align 4
  %.not15 = icmp eq i32 %23, 0
  br i1 %.not15, label %27, label %24, !llvm.loop !66

24:                                               ; preds = %.lr.ph
  %25 = load i32, ptr %21, align 4
  %26 = call ptr @lappend_oid(ptr noundef %.01317, i32 noundef %25) #15
  br label %27

27:                                               ; preds = %.lr.ph, %24
  %.1 = phi ptr [ %26, %24 ], [ %.01317, %.lr.ph ]
  %28 = call ptr @systable_getnext(ptr noundef %14) #15
  %.not = icmp eq ptr %28, null
  br i1 %.not, label %._crit_edge, label %.lr.ph

._crit_edge:                                      ; preds = %27, %8
  %.013.lcssa = phi ptr [ null, %8 ], [ %.1, %27 ]
  call void @systable_endscan(ptr noundef %14) #15
  call void @table_close(ptr noundef %9, i32 noundef 1) #15
  br label %29

29:                                               ; preds = %1, %5, %._crit_edge
  %.0 = phi ptr [ %.013.lcssa, %._crit_edge ], [ null, %5 ], [ null, %1 ]
  call void @llvm.lifetime.end.p0(i64 144, ptr nonnull %2) #15
  ret ptr %.0
}